; Function Attrs: alwaysinline norecurse nounwind ssp uwtable
define internal void @"_ZN6open3d4core15ParallelForCPU_IZNS0_6kernelL19LaunchUnaryEWKernelIhhFvPKvPvEZZZNS2_10UnaryEWCPUERKNS0_6TensorERS8_NS2_13UnaryEWOpCodeEENK3$_3clEvENKUlvE5_clEvEUlllE1_EEvRKNS0_7IndexerERKT1_RKT2_EUllE_EEvRKNS0_6DeviceElRKT_.omp_outlined"(ptr noalias noundef readonly captures(none) %0, ptr noalias readnone captures(none) %1, ptr noundef nonnull readonly align 8 captures(none) dereferenceable(8) %2, ptr noundef nonnull readonly align 8 captures(none) dereferenceable(16) %3) #24 personality ptr @__gxx_personality_v0 {
  %5 = alloca i64, align 8
  %6 = alloca i64, align 8
  %7 = alloca i64, align 8
  %8 = alloca i32, align 4
  %9 = load i64, ptr %2, align 8, !tbaa !9
  %10 = icmp sgt i64 %9, 0
  br i1 %10, label %11, label %69

11:                                               ; preds = %4
  %12 = add nsw i64 %9, -1
  call void @llvm.lifetime.start.p0(i64 8, ptr nonnull %5) #25
  store i64 0, ptr %5, align 8, !tbaa !9
  call void @llvm.lifetime.start.p0(i64 8, ptr nonnull %6) #25
  store i64 %12, ptr %6, align 8, !tbaa !9
  call void @llvm.lifetime.start.p0(i64 8, ptr nonnull %7) #25
  store i64 1, ptr %7, align 8, !tbaa !9
  call void @llvm.lifetime.start.p0(i64 4, ptr nonnull %8) #25
  store i32 0, ptr %8, align 4, !tbaa !39
  %13 = load i32, ptr %0, align 4, !tbaa !39
  call void @__kmpc_for_static_init_8(ptr nonnull @1, i32 %13, i32 34, ptr nonnull %8, ptr nonnull %5, ptr nonnull %6, ptr nonnull %7, i64 1, i64 1)
  %14 = load i64, ptr %6, align 8, !tbaa !9
  %15 = call i64 @llvm.smin.i64(i64 %14, i64 %12)
  store i64 %15, ptr %6, align 8, !tbaa !9
  %16 = load i64, ptr %5, align 8, !tbaa !9
  %.not15 = icmp sgt i64 %16, %15
  br i1 %.not15, label %._crit_edge, label %.lr.ph

.lr.ph:                                           ; preds = %11
  %17 = getelementptr inbounds nuw i8, ptr %3, i64 8
  br label %18

18:                                               ; preds = %.lr.ph, %"_ZZN6open3d4core6kernelL19LaunchUnaryEWKernelIhhFvPKvPvEZZZNS1_10UnaryEWCPUERKNS0_6TensorERS7_NS1_13UnaryEWOpCodeEENK3$_3clEvENKUlvE5_clEvEUlllE1_EEvRKNS0_7IndexerERKT1_RKT2_ENKUllE_clEl.exit"
  %.016 = phi i64 [ %16, %.lr.ph ], [ %67, %"_ZZN6open3d4core6kernelL19LaunchUnaryEWKernelIhhFvPKvPvEZZZNS1_10UnaryEWCPUERKNS0_6TensorERS7_NS1_13UnaryEWOpCodeEENK3$_3clEvENKUlvE5_clEvEUlllE1_EEvRKNS0_7IndexerERKT1_RKT2_ENKUllE_clEl.exit" ]
  %.val = load ptr, ptr %3, align 8, !tbaa !1417
  %.val13 = load ptr, ptr %17, align 8, !tbaa !1419
  %19 = load i64, ptr %.val, align 8
  %.not.i.i = icmp sgt i64 %19, 0
  br i1 %.not.i.i, label %20, label %_ZNK6open3d4core7Indexer11GetInputPtrIhEEPT_ll.exit.i

20:                                               ; preds = %18
  %21 = getelementptr inbounds nuw i8, ptr %.val, i64 16
  %22 = icmp slt i64 %.016, 0
  br i1 %22, label %_ZNK6open3d4core7Indexer12GetOutputPtrIhEEPT_l.exit.i, label %23

23:                                               ; preds = %20
  %24 = getelementptr inbounds nuw i8, ptr %.val, i64 744
  %25 = load i8, ptr %24, align 1, !tbaa !41, !range !249, !noundef !250
  %26 = trunc nuw i8 %25 to i1
  br i1 %26, label %_ZNK6open3d4core7Indexer11GetInputPtrIhEEPT_ll.exit.thread3.i, label %.preheader.i.i.i

.preheader.i.i.i:                                 ; preds = %23
  %27 = getelementptr inbounds nuw i8, ptr %.val, i64 832
  %28 = load i64, ptr %27, align 8, !tbaa !743
  %29 = icmp sgt i64 %28, 0
  br i1 %29, label %.lr.ph.i.i.i, label %_ZNK6open3d4core7Indexer11GetInputPtrIhEEPT_ll.exit.thread3.i

.lr.ph.i.i.i:                                     ; preds = %.preheader.i.i.i
  %30 = getelementptr inbounds nuw i8, ptr %.val, i64 792
  %31 = getelementptr inbounds nuw i8, ptr %.val, i64 80
  br label %32

32:                                               ; preds = %32, %.lr.ph.i.i.i
  %.022.i.i.i = phi i64 [ 0, %.lr.ph.i.i.i ], [ %41, %32 ]
  %.01621.i.i.i = phi i64 [ 0, %.lr.ph.i.i.i ], [ %39, %32 ]
  %.01720.i.i.i = phi i64 [ %.016, %.lr.ph.i.i.i ], [ %40, %32 ]
  %33 = getelementptr inbounds nuw [5 x i64], ptr %30, i64 0, i64 %.022.i.i.i
  %34 = load i64, ptr %33, align 8, !tbaa !9
  %35 = sdiv i64 %.01720.i.i.i, %34
  %36 = getelementptr inbounds nuw [5 x i64], ptr %31, i64 0, i64 %.022.i.i.i
  %37 = load i64, ptr %36, align 8, !tbaa !9
  %38 = mul nsw i64 %37, %35
  %39 = add nsw i64 %38, %.01621.i.i.i
  %40 = srem i64 %.01720.i.i.i, %34
  %41 = add nuw nsw i64 %.022.i.i.i, 1
  %exitcond.not.i.i.i = icmp eq i64 %41, %28
  br i1 %exitcond.not.i.i.i, label %_ZNK6open3d4core7Indexer11GetInputPtrIhEEPT_ll.exit.thread3.i, label %32, !llvm.loop !786

_ZNK6open3d4core7Indexer11GetInputPtrIhEEPT_ll.exit.thread3.i: ; preds = %32, %.preheader.i.i.i, %23
  %.016.lcssa.i.sink.i.i = phi i64 [ %.016, %23 ], [ 0, %.preheader.i.i.i ], [ %39, %32 ]
  %42 = load ptr, ptr %21, align 8, !tbaa !745
  %43 = getelementptr inbounds i8, ptr %42, i64 %.016.lcssa.i.sink.i.i
  br label %45

_ZNK6open3d4core7Indexer11GetInputPtrIhEEPT_ll.exit.i: ; preds = %18
  %44 = icmp slt i64 %.016, 0
  br i1 %44, label %_ZNK6open3d4core7Indexer12GetOutputPtrIhEEPT_l.exit.i, label %45

45:                                               ; preds = %_ZNK6open3d4core7Indexer11GetInputPtrIhEEPT_ll.exit.i, %_ZNK6open3d4core7Indexer11GetInputPtrIhEEPT_ll.exit.thread3.i
  %.0.i5.i = phi ptr [ %43, %_ZNK6open3d4core7Indexer11GetInputPtrIhEEPT_ll.exit.thread3.i ], [ null, %_ZNK6open3d4core7Indexer11GetInputPtrIhEEPT_ll.exit.i ]
  %46 = getelementptr inbounds nuw i8, ptr %.val, i64 536
  %47 = getelementptr inbounds nuw i8, ptr %.val, i64 749
  %48 = load i8, ptr %47, align 1, !tbaa !41, !range !249, !noundef !250
  %49 = trunc nuw i8 %48 to i1
  br i1 %49, label %_ZNK6open3d4core7Indexer12GetOutputPtrIhEEPT_l.exit.sink.split.i, label %.preheader.i.i2.i

.preheader.i.i2.i:                                ; preds = %45
  %50 = getelementptr inbounds nuw i8, ptr %.val, i64 832
  %51 = load i64, ptr %50, align 8, !tbaa !743
  %52 = icmp sgt i64 %51, 0
  br i1 %52, label %.lr.ph.i.i3.i, label %_ZNK6open3d4core7Indexer12GetOutputPtrIhEEPT_l.exit.sink.split.i

.lr.ph.i.i3.i:                                    ; preds = %.preheader.i.i2.i
  %53 = getelementptr inbounds nuw i8, ptr %.val, i64 792
  %54 = getelementptr inbounds nuw i8, ptr %.val, i64 600
  br label %55

55:                                               ; preds = %55, %.lr.ph.i.i3.i
  %.022.i.i4.i = phi i64 [ 0, %.lr.ph.i.i3.i ], [ %64, %55 ]
  %.01621.i.i5.i = phi i64 [ 0, %.lr.ph.i.i3.i ], [ %62, %55 ]
  %.01720.i.i6.i = phi i64 [ %.016, %.lr.ph.i.i3.i ], [ %63, %55 ]
  %56 = getelementptr inbounds nuw [5 x i64], ptr %53, i64 0, i64 %.022.i.i4.i
  %57 = load i64, ptr %56, align 8, !tbaa !9
  %58 = sdiv i64 %.01720.i.i6.i, %57
  %59 = getelementptr inbounds nuw [5 x i64], ptr %54, i64 0, i64 %.022.i.i4.i
  %60 = load i64, ptr %59, align 8, !tbaa !9
  %61 = mul nsw i64 %60, %58
  %62 = add nsw i64 %61, %.01621.i.i5.i
  %63 = srem i64 %.01720.i.i6.i, %57
  %64 = add nuw nsw i64 %.022.i.i4.i, 1
  %exitcond.not.i.i7.i = icmp eq i64 %64, %51
  br i1 %exitcond.not.i.i7.i, label %_ZNK6open3d4core7Indexer12GetOutputPtrIhEEPT_l.exit.sink.split.i, label %55, !llvm.loop !786

_ZNK6open3d4core7Indexer12GetOutputPtrIhEEPT_l.exit.sink.split.i: ; preds = %55, %.preheader.i.i2.i, %45
  %.sink9.i = phi i64 [ %.016, %45 ], [ 0, %.preheader.i.i2.i ], [ %62, %55 ]
  %65 = load ptr, ptr %46, align 8, !tbaa !745
  %66 = getelementptr inbounds i8, ptr %65, i64 %.sink9.i
  br label %_ZNK6open3d4core7Indexer12GetOutputPtrIhEEPT_l.exit.i

_ZNK6open3d4core7Indexer12GetOutputPtrIhEEPT_l.exit.i: ; preds = %_ZNK6open3d4core7Indexer12GetOutputPtrIhEEPT_l.exit.sink.split.i, %_ZNK6open3d4core7Indexer11GetInputPtrIhEEPT_ll.exit.i, %20
  %.0.i2.i = phi ptr [ null, %_ZNK6open3d4core7Indexer11GetInputPtrIhEEPT_ll.exit.i ], [ null, %20 ], [ %.0.i5.i, %_ZNK6open3d4core7Indexer12GetOutputPtrIhEEPT_l.exit.sink.split.i ]
  %.018.i.i.i = phi ptr [ null, %_ZNK6open3d4core7Indexer11GetInputPtrIhEEPT_ll.exit.i ], [ null, %20 ], [ %66, %_ZNK6open3d4core7Indexer12GetOutputPtrIhEEPT_l.exit.sink.split.i ]
  invoke void %.val13(ptr noundef %.0.i2.i, ptr noundef %.018.i.i.i)
          to label %"_ZZN6open3d4core6kernelL19LaunchUnaryEWKernelIhhFvPKvPvEZZZNS1_10UnaryEWCPUERKNS0_6TensorERS7_NS1_13UnaryEWOpCodeEENK3$_3clEvENKUlvE5_clEvEUlllE1_EEvRKNS0_7IndexerERKT1_RKT2_ENKUllE_clEl.exit" unwind label %70

"_ZZN6open3d4core6kernelL19LaunchUnaryEWKernelIhhFvPKvPvEZZZNS1_10UnaryEWCPUERKNS0_6TensorERS7_NS1_13UnaryEWOpCodeEENK3$_3clEvENKUlvE5_clEvEUlllE1_EEvRKNS0_7IndexerERKT1_RKT2_ENKUllE_clEl.exit": ; preds = %_ZNK6open3d4core7Indexer12GetOutputPtrIhEEPT_l.exit.i
  %67 = add nsw i64 %.016, 1
  %68 = load i64, ptr %6, align 8, !tbaa !9
  %.not.not = icmp slt i64 %.016, %68
  br i1 %.not.not, label %18, label %._crit_edge

._crit_edge:                                      ; preds = %"_ZZN6open3d4core6kernelL19LaunchUnaryEWKernelIhhFvPKvPvEZZZNS1_10UnaryEWCPUERKNS0_6TensorERS7_NS1_13UnaryEWOpCodeEENK3$_3clEvENKUlvE5_clEvEUlllE1_EEvRKNS0_7IndexerERKT1_RKT2_ENKUllE_clEl.exit", %11
  call void @__kmpc_for_static_fini(ptr nonnull @1, i32 %13)
  call void @llvm.lifetime.end.p0(i64 4, ptr nonnull %8) #25
  call void @llvm.lifetime.end.p0(i64 8, ptr nonnull %7) #25
  call void @llvm.lifetime.end.p0(i64 8, ptr nonnull %6) #25
  call void @llvm.lifetime.end.p0(i64 8, ptr nonnull %5) #25
  br label %69

69:                                               ; preds = %._crit_edge, %4
  ret void

70:                                               ; preds = %_ZNK6open3d4core7Indexer12GetOutputPtrIhEEPT_l.exit.i
  %71 = landingpad { ptr, i32 }
          catch ptr null
  %72 = extractvalue { ptr, i32 } %71, 0
  call void @__clang_call_terminate(ptr %72) #38
  unreachable
}